
PROYECTO 2.elf:     file format elf32-avr

Sections:
Idx Name          Size      VMA       LMA       File off  Algn
  0 .data         00000034  00800100  00000aea  00000b7e  2**0
                  CONTENTS, ALLOC, LOAD, DATA
  1 .text         00000aea  00000000  00000000  00000094  2**1
                  CONTENTS, ALLOC, LOAD, READONLY, CODE
  2 .bss          00000038  00800134  00800134  00000bb2  2**0
                  ALLOC
  3 .comment      00000030  00000000  00000000  00000bb2  2**0
                  CONTENTS, READONLY
  4 .note.gnu.avr.deviceinfo 00000040  00000000  00000000  00000be4  2**2
                  CONTENTS, READONLY
  5 .debug_aranges 00000250  00000000  00000000  00000c24  2**0
                  CONTENTS, READONLY, DEBUGGING
  6 .debug_info   00001b88  00000000  00000000  00000e74  2**0
                  CONTENTS, READONLY, DEBUGGING
  7 .debug_abbrev 00000e41  00000000  00000000  000029fc  2**0
                  CONTENTS, READONLY, DEBUGGING
  8 .debug_line   000011c3  00000000  00000000  0000383d  2**0
                  CONTENTS, READONLY, DEBUGGING
  9 .debug_frame  0000056c  00000000  00000000  00004a00  2**2
                  CONTENTS, READONLY, DEBUGGING
 10 .debug_str    0000097e  00000000  00000000  00004f6c  2**0
                  CONTENTS, READONLY, DEBUGGING
 11 .debug_loc    000010bd  00000000  00000000  000058ea  2**0
                  CONTENTS, READONLY, DEBUGGING
 12 .debug_ranges 000001f0  00000000  00000000  000069a7  2**0
                  CONTENTS, READONLY, DEBUGGING

Disassembly of section .text:

00000000 <__vectors>:
   0:	0c 94 34 00 	jmp	0x68	; 0x68 <__ctors_end>
   4:	0c 94 51 00 	jmp	0xa2	; 0xa2 <__bad_interrupt>
   8:	0c 94 51 00 	jmp	0xa2	; 0xa2 <__bad_interrupt>
   c:	0c 94 51 00 	jmp	0xa2	; 0xa2 <__bad_interrupt>
  10:	0c 94 51 00 	jmp	0xa2	; 0xa2 <__bad_interrupt>
  14:	0c 94 51 00 	jmp	0xa2	; 0xa2 <__bad_interrupt>
  18:	0c 94 51 00 	jmp	0xa2	; 0xa2 <__bad_interrupt>
  1c:	0c 94 51 00 	jmp	0xa2	; 0xa2 <__bad_interrupt>
  20:	0c 94 51 00 	jmp	0xa2	; 0xa2 <__bad_interrupt>
  24:	0c 94 51 00 	jmp	0xa2	; 0xa2 <__bad_interrupt>
  28:	0c 94 51 00 	jmp	0xa2	; 0xa2 <__bad_interrupt>
  2c:	0c 94 51 04 	jmp	0x8a2	; 0x8a2 <__vector_11>
  30:	0c 94 51 00 	jmp	0xa2	; 0xa2 <__bad_interrupt>
  34:	0c 94 51 00 	jmp	0xa2	; 0xa2 <__bad_interrupt>
  38:	0c 94 bd 02 	jmp	0x57a	; 0x57a <__vector_14>
  3c:	0c 94 51 00 	jmp	0xa2	; 0xa2 <__bad_interrupt>
  40:	0c 94 51 00 	jmp	0xa2	; 0xa2 <__bad_interrupt>
  44:	0c 94 51 00 	jmp	0xa2	; 0xa2 <__bad_interrupt>
  48:	0c 94 51 00 	jmp	0xa2	; 0xa2 <__bad_interrupt>
  4c:	0c 94 51 00 	jmp	0xa2	; 0xa2 <__bad_interrupt>
  50:	0c 94 51 00 	jmp	0xa2	; 0xa2 <__bad_interrupt>
  54:	0c 94 51 00 	jmp	0xa2	; 0xa2 <__bad_interrupt>
  58:	0c 94 51 00 	jmp	0xa2	; 0xa2 <__bad_interrupt>
  5c:	0c 94 51 00 	jmp	0xa2	; 0xa2 <__bad_interrupt>
  60:	0c 94 51 00 	jmp	0xa2	; 0xa2 <__bad_interrupt>
  64:	0c 94 51 00 	jmp	0xa2	; 0xa2 <__bad_interrupt>

00000068 <__ctors_end>:
  68:	11 24       	eor	r1, r1
  6a:	1f be       	out	0x3f, r1	; 63
  6c:	cf ef       	ldi	r28, 0xFF	; 255
  6e:	d8 e0       	ldi	r29, 0x08	; 8
  70:	de bf       	out	0x3e, r29	; 62
  72:	cd bf       	out	0x3d, r28	; 61

00000074 <__do_copy_data>:
  74:	11 e0       	ldi	r17, 0x01	; 1
  76:	a0 e0       	ldi	r26, 0x00	; 0
  78:	b1 e0       	ldi	r27, 0x01	; 1
  7a:	ea ee       	ldi	r30, 0xEA	; 234
  7c:	fa e0       	ldi	r31, 0x0A	; 10
  7e:	02 c0       	rjmp	.+4      	; 0x84 <__do_copy_data+0x10>
  80:	05 90       	lpm	r0, Z+
  82:	0d 92       	st	X+, r0
  84:	a4 33       	cpi	r26, 0x34	; 52
  86:	b1 07       	cpc	r27, r17
  88:	d9 f7       	brne	.-10     	; 0x80 <__do_copy_data+0xc>

0000008a <__do_clear_bss>:
  8a:	21 e0       	ldi	r18, 0x01	; 1
  8c:	a4 e3       	ldi	r26, 0x34	; 52
  8e:	b1 e0       	ldi	r27, 0x01	; 1
  90:	01 c0       	rjmp	.+2      	; 0x94 <.do_clear_bss_start>

00000092 <.do_clear_bss_loop>:
  92:	1d 92       	st	X+, r1

00000094 <.do_clear_bss_start>:
  94:	ac 36       	cpi	r26, 0x6C	; 108
  96:	b2 07       	cpc	r27, r18
  98:	e1 f7       	brne	.-8      	; 0x92 <.do_clear_bss_loop>
  9a:	0e 94 5f 02 	call	0x4be	; 0x4be <main>
  9e:	0c 94 73 05 	jmp	0xae6	; 0xae6 <_exit>

000000a2 <__bad_interrupt>:
  a2:	0c 94 00 00 	jmp	0	; 0x0 <__vectors>

000000a6 <initADC>:
	/*
		Referencia de voltaje: AVCC
		Resultado justificado a la derecha
		Canal inicial: ADC0
	*/
	ADMUX = (1 << REFS0);
  a6:	80 e4       	ldi	r24, 0x40	; 64
  a8:	80 93 7c 00 	sts	0x007C, r24	; 0x80007c <__TEXT_REGION_LENGTH__+0x7f807c>

	/*
		
	*/
	ADCSRA = (1 << ADEN)  |
  ac:	87 e8       	ldi	r24, 0x87	; 135
  ae:	80 93 7a 00 	sts	0x007A, r24	; 0x80007a <__TEXT_REGION_LENGTH__+0x7f807a>

	/*
		Modo normal de conversion.
		No se usa auto trigger.
	*/
	ADCSRB = 0;
  b2:	10 92 7b 00 	sts	0x007B, r1	; 0x80007b <__TEXT_REGION_LENGTH__+0x7f807b>
  b6:	08 95       	ret

000000b8 <readADC>:
{
	/*
		El ATmega328P normalmente usa ADC0 a ADC5.
		Esta mascara evita seleccionar canales fuera de rango.
	*/
	canal = canal & 0x07;
  b8:	87 70       	andi	r24, 0x07	; 7

	/*
		Se conserva la referencia AVCC y se cambia solamente el canal.
	*/
	ADMUX = (ADMUX & 0xF0) | canal;
  ba:	ec e7       	ldi	r30, 0x7C	; 124
  bc:	f0 e0       	ldi	r31, 0x00	; 0
  be:	90 81       	ld	r25, Z
  c0:	90 7f       	andi	r25, 0xF0	; 240
  c2:	89 2b       	or	r24, r25
  c4:	80 83       	st	Z, r24

	/*
		Iniciar conversion ADC.
	*/
	ADCSRA |= (1 << ADSC);
  c6:	ea e7       	ldi	r30, 0x7A	; 122
  c8:	f0 e0       	ldi	r31, 0x00	; 0
  ca:	80 81       	ld	r24, Z
  cc:	80 64       	ori	r24, 0x40	; 64
  ce:	80 83       	st	Z, r24

	
	while (ADCSRA & (1 << ADSC));
  d0:	80 91 7a 00 	lds	r24, 0x007A	; 0x80007a <__TEXT_REGION_LENGTH__+0x7f807a>
  d4:	86 fd       	sbrc	r24, 6
  d6:	fc cf       	rjmp	.-8      	; 0xd0 <readADC+0x18>

	/*
		Retornar resultado de 10 bits.
		Rango: 0 a 1023.
	*/
	return ADC;
  d8:	80 91 78 00 	lds	r24, 0x0078	; 0x800078 <__TEXT_REGION_LENGTH__+0x7f8078>
  dc:	90 91 79 00 	lds	r25, 0x0079	; 0x800079 <__TEXT_REGION_LENGTH__+0x7f8079>
}
  e0:	08 95       	ret

000000e2 <initEEPROM>:
{
	/*
		No se necesita configuracion especial para usar EEPROM.
		Se asegura que la interrupcion de EEPROM quede deshabilitada.
	*/
	EECR &= ~(1 << EERIE);
  e2:	8f b3       	in	r24, 0x1f	; 31
  e4:	87 7f       	andi	r24, 0xF7	; 247
  e6:	8f bb       	out	0x1f, r24	; 31
  e8:	08 95       	ret

000000ea <readEEPROM>:
{
	/*
		Esperar si hay una escritura en proceso.
		Esto no es un delay, solo espera a que el hardware este listo.
	*/
	while (EECR & (1 << EEPE));
  ea:	f9 99       	sbic	0x1f, 1	; 31
  ec:	fe cf       	rjmp	.-4      	; 0xea <readEEPROM>

	/*
		Cargar direccion.
	*/
	EEAR = direccion;
  ee:	92 bd       	out	0x22, r25	; 34
  f0:	81 bd       	out	0x21, r24	; 33

	/*
		Iniciar lectura.
	*/
	EECR |= (1 << EERE);
  f2:	8f b3       	in	r24, 0x1f	; 31
  f4:	81 60       	ori	r24, 0x01	; 1
  f6:	8f bb       	out	0x1f, r24	; 31

	/*
		Retornar dato leido.
	*/
	return EEDR;
  f8:	80 b5       	in	r24, 0x20	; 32
}
  fa:	08 95       	ret

000000fc <writeEEPROM>:
	uint8_t estadoSREG;

	/*
		Esperar si hay una escritura en proceso.
	*/
	while (EECR & (1 << EEPE));
  fc:	f9 99       	sbic	0x1f, 1	; 31
  fe:	fe cf       	rjmp	.-4      	; 0xfc <writeEEPROM>

	/*
		Cargar direccion y dato.
	*/
	EEAR = direccion;
 100:	92 bd       	out	0x22, r25	; 34
 102:	81 bd       	out	0x21, r24	; 33
	EEDR = dato;
 104:	60 bd       	out	0x20, r22	; 32

	/*
		Modo erase and write.
	*/
	EECR &= ~((1 << EEPM1) | (1 << EEPM0));
 106:	8f b3       	in	r24, 0x1f	; 31
 108:	8f 7c       	andi	r24, 0xCF	; 207
 10a:	8f bb       	out	0x1f, r24	; 31
		La secuencia EEMPE -> EEPE debe hacerse sin interrupciones
		durante pocos ciclos para que la escritura sea valida.

		Esta libreria NO contiene ISR y NO contiene delays.
	*/
	estadoSREG = SREG;
 10c:	9f b7       	in	r25, 0x3f	; 63
	cli();
 10e:	f8 94       	cli

	EECR |= (1 << EEMPE);
 110:	8f b3       	in	r24, 0x1f	; 31
 112:	84 60       	ori	r24, 0x04	; 4
 114:	8f bb       	out	0x1f, r24	; 31
	EECR |= (1 << EEPE);
 116:	8f b3       	in	r24, 0x1f	; 31
 118:	82 60       	ori	r24, 0x02	; 2
 11a:	8f bb       	out	0x1f, r24	; 31

	SREG = estadoSREG;
 11c:	9f bf       	out	0x3f, r25	; 63
 11e:	08 95       	ret

00000120 <updateEEPROM>:
}

void updateEEPROM(uint16_t direccion, uint8_t dato)
{
 120:	1f 93       	push	r17
 122:	cf 93       	push	r28
 124:	df 93       	push	r29
 126:	ec 01       	movw	r28, r24
 128:	16 2f       	mov	r17, r22
	uint8_t datoActual;

	datoActual = readEEPROM(direccion);
 12a:	0e 94 75 00 	call	0xea	; 0xea <readEEPROM>

	/*
		Solo escribir si el dato cambio.
		Esto ayuda a cuidar la vida util de la EEPROM.
	*/
	if (datoActual != dato)
 12e:	81 17       	cp	r24, r17
 130:	21 f0       	breq	.+8      	; 0x13a <updateEEPROM+0x1a>
	{
		writeEEPROM(direccion, dato);
 132:	61 2f       	mov	r22, r17
 134:	ce 01       	movw	r24, r28
 136:	0e 94 7e 00 	call	0xfc	; 0xfc <writeEEPROM>
	}
}
 13a:	df 91       	pop	r29
 13c:	cf 91       	pop	r28
 13e:	1f 91       	pop	r17
 140:	08 95       	ret

00000142 <readEEPROM_Block>:

void readEEPROM_Block(uint16_t direccionInicial, uint8_t* datos, uint8_t cantidad)
{
 142:	cf 92       	push	r12
 144:	df 92       	push	r13
 146:	ef 92       	push	r14
 148:	ff 92       	push	r15
 14a:	0f 93       	push	r16
 14c:	1f 93       	push	r17
 14e:	cf 93       	push	r28
 150:	df 93       	push	r29
 152:	6c 01       	movw	r12, r24
 154:	7b 01       	movw	r14, r22
 156:	d4 2f       	mov	r29, r20
	uint8_t i;

	for (i = 0; i < cantidad; i++)
 158:	c0 e0       	ldi	r28, 0x00	; 0
 15a:	0c c0       	rjmp	.+24     	; 0x174 <readEEPROM_Block+0x32>
	{
		datos[i] = readEEPROM(direccionInicial + i);
 15c:	8c 2f       	mov	r24, r28
 15e:	90 e0       	ldi	r25, 0x00	; 0
 160:	87 01       	movw	r16, r14
 162:	08 0f       	add	r16, r24
 164:	19 1f       	adc	r17, r25
 166:	8c 0d       	add	r24, r12
 168:	9d 1d       	adc	r25, r13
 16a:	0e 94 75 00 	call	0xea	; 0xea <readEEPROM>
 16e:	f8 01       	movw	r30, r16
 170:	80 83       	st	Z, r24

void readEEPROM_Block(uint16_t direccionInicial, uint8_t* datos, uint8_t cantidad)
{
	uint8_t i;

	for (i = 0; i < cantidad; i++)
 172:	cf 5f       	subi	r28, 0xFF	; 255
 174:	cd 17       	cp	r28, r29
 176:	90 f3       	brcs	.-28     	; 0x15c <readEEPROM_Block+0x1a>
	{
		datos[i] = readEEPROM(direccionInicial + i);
	}
}
 178:	df 91       	pop	r29
 17a:	cf 91       	pop	r28
 17c:	1f 91       	pop	r17
 17e:	0f 91       	pop	r16
 180:	ff 90       	pop	r15
 182:	ef 90       	pop	r14
 184:	df 90       	pop	r13
 186:	cf 90       	pop	r12
 188:	08 95       	ret

0000018a <writeEEPROM_Block>:

void writeEEPROM_Block(uint16_t direccionInicial, uint8_t* datos, uint8_t cantidad)
{
 18a:	ef 92       	push	r14
 18c:	ff 92       	push	r15
 18e:	0f 93       	push	r16
 190:	1f 93       	push	r17
 192:	cf 93       	push	r28
 194:	df 93       	push	r29
 196:	7c 01       	movw	r14, r24
 198:	8b 01       	movw	r16, r22
 19a:	d4 2f       	mov	r29, r20
	uint8_t i;

	for (i = 0; i < cantidad; i++)
 19c:	c0 e0       	ldi	r28, 0x00	; 0
 19e:	0b c0       	rjmp	.+22     	; 0x1b6 <writeEEPROM_Block+0x2c>
	{
		updateEEPROM(direccionInicial + i, datos[i]);
 1a0:	8c 2f       	mov	r24, r28
 1a2:	90 e0       	ldi	r25, 0x00	; 0
 1a4:	f8 01       	movw	r30, r16
 1a6:	e8 0f       	add	r30, r24
 1a8:	f9 1f       	adc	r31, r25
 1aa:	60 81       	ld	r22, Z
 1ac:	8e 0d       	add	r24, r14
 1ae:	9f 1d       	adc	r25, r15
 1b0:	0e 94 90 00 	call	0x120	; 0x120 <updateEEPROM>

void writeEEPROM_Block(uint16_t direccionInicial, uint8_t* datos, uint8_t cantidad)
{
	uint8_t i;

	for (i = 0; i < cantidad; i++)
 1b4:	cf 5f       	subi	r28, 0xFF	; 255
 1b6:	cd 17       	cp	r28, r29
 1b8:	98 f3       	brcs	.-26     	; 0x1a0 <writeEEPROM_Block+0x16>
	{
		updateEEPROM(direccionInicial + i, datos[i]);
	}
 1ba:	df 91       	pop	r29
 1bc:	cf 91       	pop	r28
 1be:	1f 91       	pop	r17
 1c0:	0f 91       	pop	r16
 1c2:	ff 90       	pop	r15
 1c4:	ef 90       	pop	r14
 1c6:	08 95       	ret

000001c8 <inicializarBotones>:
	/*
		PB3 y PB4 como entradas con pull-up interno.
		Boton presionado = 0.
		Boton suelto = 1.
	*/
	BOTON_DDR &= ~((1 << PIN_GUARDAR) | (1 << PIN_REPRODUCIR));
 1c8:	84 b1       	in	r24, 0x04	; 4
 1ca:	87 7e       	andi	r24, 0xE7	; 231
 1cc:	84 b9       	out	0x04, r24	; 4
	BOTON_PORT |= (1 << PIN_GUARDAR) | (1 << PIN_REPRODUCIR);
 1ce:	85 b1       	in	r24, 0x05	; 5
 1d0:	88 61       	ori	r24, 0x18	; 24
 1d2:	85 b9       	out	0x05, r24	; 5
 1d4:	08 95       	ret

000001d6 <inicializarLED>:
}

static void inicializarLED(void)
{
	LED_DDR |= (1 << PIN_LED);
 1d6:	8a b1       	in	r24, 0x0a	; 10
 1d8:	84 60       	ori	r24, 0x04	; 4
 1da:	8a b9       	out	0x0a, r24	; 10
	LED_PORT &= ~(1 << PIN_LED);
 1dc:	8b b1       	in	r24, 0x0b	; 11
 1de:	8b 7f       	andi	r24, 0xFB	; 251
 1e0:	8b b9       	out	0x0b, r24	; 11
 1e2:	08 95       	ret

000001e4 <botonPresionado>:
{
	uint8_t estadoActual;
	uint8_t tickActual;
	uint8_t evento = 0;

	estadoActual = (BOTON_PIN & (1 << pin)) ? 1 : 0;
 1e4:	23 b1       	in	r18, 0x03	; 3
 1e6:	30 e0       	ldi	r19, 0x00	; 0
 1e8:	d9 01       	movw	r26, r18
 1ea:	02 c0       	rjmp	.+4      	; 0x1f0 <botonPresionado+0xc>
 1ec:	b5 95       	asr	r27
 1ee:	a7 95       	ror	r26
 1f0:	8a 95       	dec	r24
 1f2:	e2 f7       	brpl	.-8      	; 0x1ec <botonPresionado+0x8>
 1f4:	21 e0       	ldi	r18, 0x01	; 1
 1f6:	fd 01       	movw	r30, r26
 1f8:	e1 70       	andi	r30, 0x01	; 1
 1fa:	ff 27       	eor	r31, r31
 1fc:	a0 ff       	sbrs	r26, 0
 1fe:	20 e0       	ldi	r18, 0x00	; 0
	tickActual = ticks10ms;
 200:	90 91 3c 01 	lds	r25, 0x013C	; 0x80013c <ticks10ms>

	if ((*estadoAnt == 1) && (estadoActual == 0))
 204:	db 01       	movw	r26, r22
 206:	8c 91       	ld	r24, X
 208:	81 30       	cpi	r24, 0x01	; 1
 20a:	61 f4       	brne	.+24     	; 0x224 <botonPresionado+0x40>
 20c:	ef 2b       	or	r30, r31
 20e:	61 f4       	brne	.+24     	; 0x228 <botonPresionado+0x44>
	{
		if ((uint8_t)(tickActual - *ultimoTick) >= ANTIREBOTE_TICKS)
 210:	fa 01       	movw	r30, r20
 212:	80 81       	ld	r24, Z
 214:	f9 2f       	mov	r31, r25
 216:	f8 1b       	sub	r31, r24
 218:	f5 30       	cpi	r31, 0x05	; 5
 21a:	40 f0       	brcs	.+16     	; 0x22c <botonPresionado+0x48>
		{
			evento = 1;
			*ultimoTick = tickActual;
 21c:	da 01       	movw	r26, r20
 21e:	9c 93       	st	X, r25

	if ((*estadoAnt == 1) && (estadoActual == 0))
	{
		if ((uint8_t)(tickActual - *ultimoTick) >= ANTIREBOTE_TICKS)
		{
			evento = 1;
 220:	81 e0       	ldi	r24, 0x01	; 1
 222:	05 c0       	rjmp	.+10     	; 0x22e <botonPresionado+0x4a>

static uint8_t botonPresionado(uint8_t pin, uint8_t *estadoAnt, uint8_t *ultimoTick)
{
	uint8_t estadoActual;
	uint8_t tickActual;
	uint8_t evento = 0;
 224:	80 e0       	ldi	r24, 0x00	; 0
 226:	03 c0       	rjmp	.+6      	; 0x22e <botonPresionado+0x4a>
 228:	80 e0       	ldi	r24, 0x00	; 0
 22a:	01 c0       	rjmp	.+2      	; 0x22e <botonPresionado+0x4a>
 22c:	80 e0       	ldi	r24, 0x00	; 0
			evento = 1;
			*ultimoTick = tickActual;
		}
	}

	*estadoAnt = estadoActual;
 22e:	fb 01       	movw	r30, r22
 230:	20 83       	st	Z, r18

	return evento;
}
 232:	08 95       	ret

00000234 <iniciarLEDGuardar>:

static void iniciarLEDGuardar(void)
{
	LED_PORT |= (1 << PIN_LED);
 234:	8b b1       	in	r24, 0x0b	; 11
 236:	84 60       	ori	r24, 0x04	; 4
 238:	8b b9       	out	0x0b, r24	; 11
	estadoLED = LED_ON_FIJO;
 23a:	81 e0       	ldi	r24, 0x01	; 1
 23c:	80 93 38 01 	sts	0x0138, r24	; 0x800138 <estadoLED>
	tickInicioLED = ticks10ms;
 240:	80 91 3c 01 	lds	r24, 0x013C	; 0x80013c <ticks10ms>
 244:	80 93 37 01 	sts	0x0137, r24	; 0x800137 <tickInicioLED>
 248:	08 95       	ret

0000024a <iniciarLEDReproducir>:
}

static void iniciarLEDReproducir(void)
{
	LED_PORT |= (1 << PIN_LED);
 24a:	8b b1       	in	r24, 0x0b	; 11
 24c:	84 60       	ori	r24, 0x04	; 4
 24e:	8b b9       	out	0x0b, r24	; 11
	estadoLED = LED_BLINK_ON;
 250:	82 e0       	ldi	r24, 0x02	; 2
 252:	80 93 38 01 	sts	0x0138, r24	; 0x800138 <estadoLED>
	tickInicioLED = ticks10ms;
 256:	80 91 3c 01 	lds	r24, 0x013C	; 0x80013c <ticks10ms>
 25a:	80 93 37 01 	sts	0x0137, r24	; 0x800137 <tickInicioLED>
	contParpadeos = 0;
 25e:	10 92 36 01 	sts	0x0136, r1	; 0x800136 <contParpadeos>
 262:	08 95       	ret

00000264 <gestionarLED>:
static void gestionarLED(void)
{
	uint8_t tickActual;
	uint8_t ticksTransc;

	tickActual = ticks10ms;
 264:	90 91 3c 01 	lds	r25, 0x013C	; 0x80013c <ticks10ms>
	ticksTransc = (uint8_t)(tickActual - tickInicioLED);
 268:	80 91 37 01 	lds	r24, 0x0137	; 0x800137 <tickInicioLED>
 26c:	29 2f       	mov	r18, r25
 26e:	28 1b       	sub	r18, r24

	switch (estadoLED)
 270:	80 91 38 01 	lds	r24, 0x0138	; 0x800138 <estadoLED>
 274:	82 30       	cpi	r24, 0x02	; 2
 276:	61 f0       	breq	.+24     	; 0x290 <gestionarLED+0x2c>
 278:	83 30       	cpi	r24, 0x03	; 3
 27a:	d1 f0       	breq	.+52     	; 0x2b0 <gestionarLED+0x4c>
 27c:	81 30       	cpi	r24, 0x01	; 1
 27e:	49 f5       	brne	.+82     	; 0x2d2 <gestionarLED+0x6e>
	{
		case LED_ON_FIJO:
			if (ticksTransc >= LED_GUARDAR_TICKS)
 280:	22 33       	cpi	r18, 0x32	; 50
 282:	38 f1       	brcs	.+78     	; 0x2d2 <gestionarLED+0x6e>
			{
				LED_PORT &= ~(1 << PIN_LED);
 284:	8b b1       	in	r24, 0x0b	; 11
 286:	8b 7f       	andi	r24, 0xFB	; 251
 288:	8b b9       	out	0x0b, r24	; 11
				estadoLED = LED_IDLE;
 28a:	10 92 38 01 	sts	0x0138, r1	; 0x800138 <estadoLED>
 28e:	08 95       	ret
			}
			break;

		case LED_BLINK_ON:
			if (ticksTransc >= LED_BLINK_ON_TICKS)
 290:	24 31       	cpi	r18, 0x14	; 20
 292:	f8 f0       	brcs	.+62     	; 0x2d2 <gestionarLED+0x6e>
			{
				LED_PORT &= ~(1 << PIN_LED);
 294:	8b b1       	in	r24, 0x0b	; 11
 296:	8b 7f       	andi	r24, 0xFB	; 251
 298:	8b b9       	out	0x0b, r24	; 11
				estadoLED = LED_BLINK_OFF;
 29a:	83 e0       	ldi	r24, 0x03	; 3
 29c:	80 93 38 01 	sts	0x0138, r24	; 0x800138 <estadoLED>
				tickInicioLED = tickActual;
 2a0:	90 93 37 01 	sts	0x0137, r25	; 0x800137 <tickInicioLED>
				contParpadeos++;
 2a4:	80 91 36 01 	lds	r24, 0x0136	; 0x800136 <contParpadeos>
 2a8:	8f 5f       	subi	r24, 0xFF	; 255
 2aa:	80 93 36 01 	sts	0x0136, r24	; 0x800136 <contParpadeos>
 2ae:	08 95       	ret
			}
			break;

		case LED_BLINK_OFF:
			if (ticksTransc >= LED_BLINK_OFF_TICKS)
 2b0:	24 31       	cpi	r18, 0x14	; 20
 2b2:	78 f0       	brcs	.+30     	; 0x2d2 <gestionarLED+0x6e>
			{
				if (contParpadeos < LED_BLINKS_TOTAL)
 2b4:	80 91 36 01 	lds	r24, 0x0136	; 0x800136 <contParpadeos>
 2b8:	82 30       	cpi	r24, 0x02	; 2
 2ba:	48 f4       	brcc	.+18     	; 0x2ce <gestionarLED+0x6a>
				{
					LED_PORT |= (1 << PIN_LED);
 2bc:	8b b1       	in	r24, 0x0b	; 11
 2be:	84 60       	ori	r24, 0x04	; 4
 2c0:	8b b9       	out	0x0b, r24	; 11
					estadoLED = LED_BLINK_ON;
 2c2:	82 e0       	ldi	r24, 0x02	; 2
 2c4:	80 93 38 01 	sts	0x0138, r24	; 0x800138 <estadoLED>
					tickInicioLED = tickActual;
 2c8:	90 93 37 01 	sts	0x0137, r25	; 0x800137 <tickInicioLED>
 2cc:	08 95       	ret
				}
				else
				{
					estadoLED = LED_IDLE;
 2ce:	10 92 38 01 	sts	0x0138, r1	; 0x800138 <estadoLED>
 2d2:	08 95       	ret

000002d4 <inicializarHardware>:
/****************************************/
// NON-Interrupt subroutines

static void inicializarHardware(void)
{
	cli();
 2d4:	f8 94       	cli

	initADC();
 2d6:	0e 94 53 00 	call	0xa6	; 0xa6 <initADC>
	initEEPROM();
 2da:	0e 94 71 00 	call	0xe2	; 0xe2 <initEEPROM>
	initUART();
 2de:	0e 94 ff 04 	call	0x9fe	; 0x9fe <initUART>

	inicializarBotones();
 2e2:	0e 94 e4 00 	call	0x1c8	; 0x1c8 <inicializarBotones>
	inicializarLED();
 2e6:	0e 94 eb 00 	call	0x1d6	; 0x1d6 <inicializarLED>

	/*
		Timer1 se usa exclusivamente dentro de la libreria PWM
		para generar los pulsos de los servos.
	*/
	Servo_init();
 2ea:	0e 94 2b 03 	call	0x656	; 0x656 <Servo_init>

	servos[0] = &servoD3;
 2ee:	ed e3       	ldi	r30, 0x3D	; 61
 2f0:	f1 e0       	ldi	r31, 0x01	; 1
 2f2:	8a e5       	ldi	r24, 0x5A	; 90
 2f4:	91 e0       	ldi	r25, 0x01	; 1
 2f6:	91 83       	std	Z+1, r25	; 0x01
 2f8:	80 83       	st	Z, r24
	servos[1] = &servoD5;
 2fa:	83 e5       	ldi	r24, 0x53	; 83
 2fc:	91 e0       	ldi	r25, 0x01	; 1
 2fe:	93 83       	std	Z+3, r25	; 0x03
 300:	82 83       	std	Z+2, r24	; 0x02
	servos[2] = &servoD6;
 302:	8c e4       	ldi	r24, 0x4C	; 76
 304:	91 e0       	ldi	r25, 0x01	; 1
 306:	95 83       	std	Z+5, r25	; 0x05
 308:	84 83       	std	Z+4, r24	; 0x04
	servos[3] = &servoD9;
 30a:	85 e4       	ldi	r24, 0x45	; 69
 30c:	91 e0       	ldi	r25, 0x01	; 1
 30e:	97 83       	std	Z+7, r25	; 0x07
 310:	86 83       	std	Z+6, r24	; 0x06

	Servo_attach(&servoD3, SERVO_D3);
 312:	60 e0       	ldi	r22, 0x00	; 0
 314:	8a e5       	ldi	r24, 0x5A	; 90
 316:	91 e0       	ldi	r25, 0x01	; 1
 318:	0e 94 59 03 	call	0x6b2	; 0x6b2 <Servo_attach>
	Servo_attach(&servoD5, SERVO_D5);
 31c:	61 e0       	ldi	r22, 0x01	; 1
 31e:	83 e5       	ldi	r24, 0x53	; 83
 320:	91 e0       	ldi	r25, 0x01	; 1
 322:	0e 94 59 03 	call	0x6b2	; 0x6b2 <Servo_attach>
	Servo_attach(&servoD6, SERVO_D6);
 326:	62 e0       	ldi	r22, 0x02	; 2
 328:	8c e4       	ldi	r24, 0x4C	; 76
 32a:	91 e0       	ldi	r25, 0x01	; 1
 32c:	0e 94 59 03 	call	0x6b2	; 0x6b2 <Servo_attach>
	Servo_attach(&servoD9, SERVO_D9);
 330:	63 e0       	ldi	r22, 0x03	; 3
 332:	85 e4       	ldi	r24, 0x45	; 69
 334:	91 e0       	ldi	r25, 0x01	; 1
 336:	0e 94 59 03 	call	0x6b2	; 0x6b2 <Servo_attach>

	/*
		Timer0 para base de tiempo de 10 ms.
		Se usa para debounce y LED.
	*/
	initTimer0_CTC(timer0_usToTicks(10000UL, TIMER_PRESCALER_1024), TIMER_PRESCALER_1024);
 33a:	40 e0       	ldi	r20, 0x00	; 0
 33c:	54 e0       	ldi	r21, 0x04	; 4
 33e:	60 e1       	ldi	r22, 0x10	; 16
 340:	77 e2       	ldi	r23, 0x27	; 39
 342:	80 e0       	ldi	r24, 0x00	; 0
 344:	90 e0       	ldi	r25, 0x00	; 0
 346:	0e 94 a7 04 	call	0x94e	; 0x94e <timer0_usToTicks>
 34a:	60 e0       	ldi	r22, 0x00	; 0
 34c:	74 e0       	ldi	r23, 0x04	; 4
 34e:	0e 94 97 04 	call	0x92e	; 0x92e <initTimer0_CTC>
	TIMSK0 |= (1 << OCIE0A);
 352:	ee e6       	ldi	r30, 0x6E	; 110
 354:	f0 e0       	ldi	r31, 0x00	; 0
 356:	80 81       	ld	r24, Z
 358:	82 60       	ori	r24, 0x02	; 2
 35a:	80 83       	st	Z, r24

	sei();
 35c:	78 94       	sei

	writeString("Sistema iniciado");
 35e:	82 e0       	ldi	r24, 0x02	; 2
 360:	91 e0       	ldi	r25, 0x01	; 1
 362:	0e 94 0d 05 	call	0xa1a	; 0xa1a <writeString>
	writeNewLine();
 366:	0e 94 20 05 	call	0xa40	; 0xa40 <writeNewLine>
 36a:	08 95       	ret

0000036c <actualizarServosManual>:
	LED_DDR |= (1 << PIN_LED);
	LED_PORT &= ~(1 << PIN_LED);
}

static void actualizarServosManual(void)
{
 36c:	cf 93       	push	r28
	uint8_t i;
	uint16_t valorADC;

	for (i = 0; i < SERVOS_USADOS; i++)
 36e:	c0 e0       	ldi	r28, 0x00	; 0
 370:	0f c0       	rjmp	.+30     	; 0x390 <actualizarServosManual+0x24>
	{
		valorADC = readADC(i);
 372:	8c 2f       	mov	r24, r28
 374:	0e 94 5c 00 	call	0xb8	; 0xb8 <readADC>
		Servo_writeADC(servos[i], valorADC);
 378:	ec 2f       	mov	r30, r28
 37a:	f0 e0       	ldi	r31, 0x00	; 0
 37c:	ee 0f       	add	r30, r30
 37e:	ff 1f       	adc	r31, r31
 380:	e3 5c       	subi	r30, 0xC3	; 195
 382:	fe 4f       	sbci	r31, 0xFE	; 254
 384:	bc 01       	movw	r22, r24
 386:	80 81       	ld	r24, Z
 388:	91 81       	ldd	r25, Z+1	; 0x01
 38a:	0e 94 f8 03 	call	0x7f0	; 0x7f0 <Servo_writeADC>
static void actualizarServosManual(void)
{
	uint8_t i;
	uint16_t valorADC;

	for (i = 0; i < SERVOS_USADOS; i++)
 38e:	cf 5f       	subi	r28, 0xFF	; 255
 390:	c4 30       	cpi	r28, 0x04	; 4
 392:	78 f3       	brcs	.-34     	; 0x372 <actualizarServosManual+0x6>
	{
		valorADC = readADC(i);
		Servo_writeADC(servos[i], valorADC);
	}
}
 394:	cf 91       	pop	r28
 396:	08 95       	ret

00000398 <guardarPosicion>:

static void guardarPosicion(uint8_t idx)
{
 398:	cf 92       	push	r12
 39a:	df 92       	push	r13
 39c:	ff 92       	push	r15
 39e:	0f 93       	push	r16
 3a0:	1f 93       	push	r17
 3a2:	cf 93       	push	r28
 3a4:	df 93       	push	r29
 3a6:	00 d0       	rcall	.+0      	; 0x3a8 <guardarPosicion+0x10>
 3a8:	00 d0       	rcall	.+0      	; 0x3aa <guardarPosicion+0x12>
 3aa:	cd b7       	in	r28, 0x3d	; 61
 3ac:	de b7       	in	r29, 0x3e	; 62
	uint16_t dir;
	uint8_t datos[SERVOS_USADOS];
	uint8_t i;

	if (idx >= POSICIONES_TOTAL)
 3ae:	83 30       	cpi	r24, 0x03	; 3
 3b0:	28 f5       	brcc	.+74     	; 0x3fc <guardarPosicion+0x64>
	{
		return;
	}

	dir = EEPROM_BASE + ((uint16_t)idx * SERVOS_USADOS);
 3b2:	c8 2e       	mov	r12, r24
 3b4:	d1 2c       	mov	r13, r1
 3b6:	cc 0c       	add	r12, r12
 3b8:	dd 1c       	adc	r13, r13
 3ba:	cc 0c       	add	r12, r12
 3bc:	dd 1c       	adc	r13, r13

	for (i = 0; i < SERVOS_USADOS; i++)
 3be:	f1 2c       	mov	r15, r1
 3c0:	13 c0       	rjmp	.+38     	; 0x3e8 <guardarPosicion+0x50>
	{
		datos[i] = Servo_getAngle(servos[i]);
 3c2:	0f 2d       	mov	r16, r15
 3c4:	10 e0       	ldi	r17, 0x00	; 0
 3c6:	f8 01       	movw	r30, r16
 3c8:	ee 0f       	add	r30, r30
 3ca:	ff 1f       	adc	r31, r31
 3cc:	e3 5c       	subi	r30, 0xC3	; 195
 3ce:	fe 4f       	sbci	r31, 0xFE	; 254
 3d0:	80 81       	ld	r24, Z
 3d2:	91 81       	ldd	r25, Z+1	; 0x01
 3d4:	0e 94 25 04 	call	0x84a	; 0x84a <Servo_getAngle>
 3d8:	e1 e0       	ldi	r30, 0x01	; 1
 3da:	f0 e0       	ldi	r31, 0x00	; 0
 3dc:	ec 0f       	add	r30, r28
 3de:	fd 1f       	adc	r31, r29
 3e0:	e0 0f       	add	r30, r16
 3e2:	f1 1f       	adc	r31, r17
 3e4:	80 83       	st	Z, r24
		return;
	}

	dir = EEPROM_BASE + ((uint16_t)idx * SERVOS_USADOS);

	for (i = 0; i < SERVOS_USADOS; i++)
 3e6:	f3 94       	inc	r15
 3e8:	83 e0       	ldi	r24, 0x03	; 3
 3ea:	8f 15       	cp	r24, r15
 3ec:	50 f7       	brcc	.-44     	; 0x3c2 <guardarPosicion+0x2a>
	{
		datos[i] = Servo_getAngle(servos[i]);
	}

	writeEEPROM_Block(dir, datos, SERVOS_USADOS);
 3ee:	44 e0       	ldi	r20, 0x04	; 4
 3f0:	be 01       	movw	r22, r28
 3f2:	6f 5f       	subi	r22, 0xFF	; 255
 3f4:	7f 4f       	sbci	r23, 0xFF	; 255
 3f6:	c6 01       	movw	r24, r12
 3f8:	0e 94 c5 00 	call	0x18a	; 0x18a <writeEEPROM_Block>
}
 3fc:	0f 90       	pop	r0
 3fe:	0f 90       	pop	r0
 400:	0f 90       	pop	r0
 402:	0f 90       	pop	r0
 404:	df 91       	pop	r29
 406:	cf 91       	pop	r28
 408:	1f 91       	pop	r17
 40a:	0f 91       	pop	r16
 40c:	ff 90       	pop	r15
 40e:	df 90       	pop	r13
 410:	cf 90       	pop	r12
 412:	08 95       	ret

00000414 <cargarPosicion>:

static void cargarPosicion(uint8_t idx)
{
 414:	1f 93       	push	r17
 416:	cf 93       	push	r28
 418:	df 93       	push	r29
 41a:	00 d0       	rcall	.+0      	; 0x41c <cargarPosicion+0x8>
 41c:	00 d0       	rcall	.+0      	; 0x41e <cargarPosicion+0xa>
 41e:	cd b7       	in	r28, 0x3d	; 61
 420:	de b7       	in	r29, 0x3e	; 62
	uint16_t dir;
	uint8_t datos[SERVOS_USADOS];
	uint8_t i;

	if (idx >= POSICIONES_TOTAL)
 422:	83 30       	cpi	r24, 0x03	; 3
 424:	98 f5       	brcc	.+102    	; 0x48c <cargarPosicion+0x78>
	{
		return;
	}

	dir = EEPROM_BASE + ((uint16_t)idx * SERVOS_USADOS);
 426:	90 e0       	ldi	r25, 0x00	; 0

	readEEPROM_Block(dir, datos, SERVOS_USADOS);
 428:	44 e0       	ldi	r20, 0x04	; 4
 42a:	be 01       	movw	r22, r28
 42c:	6f 5f       	subi	r22, 0xFF	; 255
 42e:	7f 4f       	sbci	r23, 0xFF	; 255
 430:	88 0f       	add	r24, r24
 432:	99 1f       	adc	r25, r25
 434:	88 0f       	add	r24, r24
 436:	99 1f       	adc	r25, r25
 438:	0e 94 a1 00 	call	0x142	; 0x142 <readEEPROM_Block>

	for (i = 0; i < SERVOS_USADOS; i++)
 43c:	10 e0       	ldi	r17, 0x00	; 0
 43e:	24 c0       	rjmp	.+72     	; 0x488 <cargarPosicion+0x74>
	{
		if (datos[i] > 180)
 440:	81 2f       	mov	r24, r17
 442:	90 e0       	ldi	r25, 0x00	; 0
 444:	e1 e0       	ldi	r30, 0x01	; 1
 446:	f0 e0       	ldi	r31, 0x00	; 0
 448:	ec 0f       	add	r30, r28
 44a:	fd 1f       	adc	r31, r29
 44c:	e8 0f       	add	r30, r24
 44e:	f9 1f       	adc	r31, r25
 450:	20 81       	ld	r18, Z
 452:	25 3b       	cpi	r18, 0xB5	; 181
 454:	40 f0       	brcs	.+16     	; 0x466 <cargarPosicion+0x52>
		{
			datos[i] = 90;
 456:	e1 e0       	ldi	r30, 0x01	; 1
 458:	f0 e0       	ldi	r31, 0x00	; 0
 45a:	ec 0f       	add	r30, r28
 45c:	fd 1f       	adc	r31, r29
 45e:	e8 0f       	add	r30, r24
 460:	f9 1f       	adc	r31, r25
 462:	2a e5       	ldi	r18, 0x5A	; 90
 464:	20 83       	st	Z, r18
		}

		Servo_writeAngle(servos[i], datos[i]);
 466:	a1 e0       	ldi	r26, 0x01	; 1
 468:	b0 e0       	ldi	r27, 0x00	; 0
 46a:	ac 0f       	add	r26, r28
 46c:	bd 1f       	adc	r27, r29
 46e:	a8 0f       	add	r26, r24
 470:	b9 1f       	adc	r27, r25
 472:	88 0f       	add	r24, r24
 474:	99 1f       	adc	r25, r25
 476:	fc 01       	movw	r30, r24
 478:	e3 5c       	subi	r30, 0xC3	; 195
 47a:	fe 4f       	sbci	r31, 0xFE	; 254
 47c:	6c 91       	ld	r22, X
 47e:	80 81       	ld	r24, Z
 480:	91 81       	ldd	r25, Z+1	; 0x01
 482:	0e 94 18 04 	call	0x830	; 0x830 <Servo_writeAngle>

	dir = EEPROM_BASE + ((uint16_t)idx * SERVOS_USADOS);

	readEEPROM_Block(dir, datos, SERVOS_USADOS);

	for (i = 0; i < SERVOS_USADOS; i++)
 486:	1f 5f       	subi	r17, 0xFF	; 255
 488:	14 30       	cpi	r17, 0x04	; 4
 48a:	d0 f2       	brcs	.-76     	; 0x440 <cargarPosicion+0x2c>
			datos[i] = 90;
		}

		Servo_writeAngle(servos[i], datos[i]);
	}
}
 48c:	0f 90       	pop	r0
 48e:	0f 90       	pop	r0
 490:	0f 90       	pop	r0
 492:	0f 90       	pop	r0
 494:	df 91       	pop	r29
 496:	cf 91       	pop	r28
 498:	1f 91       	pop	r17
 49a:	08 95       	ret

0000049c <imprimirNumero>:
	}
}

static void imprimirNumero(uint8_t n)
{
	writeChar((char)('0' + (n % 10)));
 49c:	9d ec       	ldi	r25, 0xCD	; 205
 49e:	89 9f       	mul	r24, r25
 4a0:	91 2d       	mov	r25, r1
 4a2:	11 24       	eor	r1, r1
 4a4:	96 95       	lsr	r25
 4a6:	96 95       	lsr	r25
 4a8:	96 95       	lsr	r25
 4aa:	99 0f       	add	r25, r25
 4ac:	29 2f       	mov	r18, r25
 4ae:	22 0f       	add	r18, r18
 4b0:	22 0f       	add	r18, r18
 4b2:	92 0f       	add	r25, r18
 4b4:	89 1b       	sub	r24, r25
 4b6:	80 5d       	subi	r24, 0xD0	; 208
 4b8:	0e 94 06 05 	call	0xa0c	; 0xa0c <writeChar>
 4bc:	08 95       	ret

000004be <main>:
/****************************************/
// Main Function

int main(void)
{
	inicializarHardware();
 4be:	0e 94 6a 01 	call	0x2d4	; 0x2d4 <inicializarHardware>

	while (1)
	{
		if (modoActual == MODO_MANUAL)
 4c2:	80 91 3b 01 	lds	r24, 0x013B	; 0x80013b <modoActual>
 4c6:	81 11       	cpse	r24, r1
 4c8:	02 c0       	rjmp	.+4      	; 0x4ce <main+0x10>
		{
			actualizarServosManual();
 4ca:	0e 94 b6 01 	call	0x36c	; 0x36c <actualizarServosManual>

		{
			static uint8_t estAnt = 1;
			static uint8_t ultTick = 0;

			if (botonPresionado(PIN_GUARDAR, &estAnt, &ultTick))
 4ce:	45 e3       	ldi	r20, 0x35	; 53
 4d0:	51 e0       	ldi	r21, 0x01	; 1
 4d2:	61 e0       	ldi	r22, 0x01	; 1
 4d4:	71 e0       	ldi	r23, 0x01	; 1
 4d6:	83 e0       	ldi	r24, 0x03	; 3
 4d8:	0e 94 f2 00 	call	0x1e4	; 0x1e4 <botonPresionado>
 4dc:	88 23       	and	r24, r24
 4de:	01 f1       	breq	.+64     	; 0x520 <main+0x62>
			{
				guardarPosicion(indiceGuardar);
 4e0:	80 91 3a 01 	lds	r24, 0x013A	; 0x80013a <indiceGuardar>
 4e4:	0e 94 cc 01 	call	0x398	; 0x398 <guardarPosicion>

				writeString("Posicion ");
 4e8:	83 e1       	ldi	r24, 0x13	; 19
 4ea:	91 e0       	ldi	r25, 0x01	; 1
 4ec:	0e 94 0d 05 	call	0xa1a	; 0xa1a <writeString>
				imprimirNumero((uint8_t)(indiceGuardar + 1));
 4f0:	80 91 3a 01 	lds	r24, 0x013A	; 0x80013a <indiceGuardar>
 4f4:	8f 5f       	subi	r24, 0xFF	; 255
 4f6:	0e 94 4e 02 	call	0x49c	; 0x49c <imprimirNumero>
				writeString(" guardada");
 4fa:	8d e1       	ldi	r24, 0x1D	; 29
 4fc:	91 e0       	ldi	r25, 0x01	; 1
 4fe:	0e 94 0d 05 	call	0xa1a	; 0xa1a <writeString>
				writeNewLine();
 502:	0e 94 20 05 	call	0xa40	; 0xa40 <writeNewLine>

				indiceGuardar++;
 506:	80 91 3a 01 	lds	r24, 0x013A	; 0x80013a <indiceGuardar>
 50a:	8f 5f       	subi	r24, 0xFF	; 255
 50c:	80 93 3a 01 	sts	0x013A, r24	; 0x80013a <indiceGuardar>

				if (indiceGuardar >= POSICIONES_TOTAL)
 510:	83 30       	cpi	r24, 0x03	; 3
 512:	10 f0       	brcs	.+4      	; 0x518 <main+0x5a>
				{
					indiceGuardar = 0;
 514:	10 92 3a 01 	sts	0x013A, r1	; 0x80013a <indiceGuardar>
				}

				iniciarLEDGuardar();
 518:	0e 94 1a 01 	call	0x234	; 0x234 <iniciarLEDGuardar>

				modoActual = MODO_MANUAL;
 51c:	10 92 3b 01 	sts	0x013B, r1	; 0x80013b <modoActual>

		{
			static uint8_t estAnt = 1;
			static uint8_t ultTick = 0;

			if (botonPresionado(PIN_REPRODUCIR, &estAnt, &ultTick))
 520:	44 e3       	ldi	r20, 0x34	; 52
 522:	51 e0       	ldi	r21, 0x01	; 1
 524:	60 e0       	ldi	r22, 0x00	; 0
 526:	71 e0       	ldi	r23, 0x01	; 1
 528:	84 e0       	ldi	r24, 0x04	; 4
 52a:	0e 94 f2 00 	call	0x1e4	; 0x1e4 <botonPresionado>
 52e:	88 23       	and	r24, r24
 530:	09 f1       	breq	.+66     	; 0x574 <main+0xb6>
			{
				cargarPosicion(indiceReproducir);
 532:	80 91 39 01 	lds	r24, 0x0139	; 0x800139 <indiceReproducir>
 536:	0e 94 0a 02 	call	0x414	; 0x414 <cargarPosicion>

				writeString("Posicion ");
 53a:	83 e1       	ldi	r24, 0x13	; 19
 53c:	91 e0       	ldi	r25, 0x01	; 1
 53e:	0e 94 0d 05 	call	0xa1a	; 0xa1a <writeString>
				imprimirNumero((uint8_t)(indiceReproducir + 1));
 542:	80 91 39 01 	lds	r24, 0x0139	; 0x800139 <indiceReproducir>
 546:	8f 5f       	subi	r24, 0xFF	; 255
 548:	0e 94 4e 02 	call	0x49c	; 0x49c <imprimirNumero>
				writeString(" reproducida");
 54c:	87 e2       	ldi	r24, 0x27	; 39
 54e:	91 e0       	ldi	r25, 0x01	; 1
 550:	0e 94 0d 05 	call	0xa1a	; 0xa1a <writeString>
				writeNewLine();
 554:	0e 94 20 05 	call	0xa40	; 0xa40 <writeNewLine>

				indiceReproducir++;
 558:	80 91 39 01 	lds	r24, 0x0139	; 0x800139 <indiceReproducir>
 55c:	8f 5f       	subi	r24, 0xFF	; 255
 55e:	80 93 39 01 	sts	0x0139, r24	; 0x800139 <indiceReproducir>

				if (indiceReproducir >= POSICIONES_TOTAL)
 562:	83 30       	cpi	r24, 0x03	; 3
 564:	10 f0       	brcs	.+4      	; 0x56a <main+0xac>
				{
					indiceReproducir = 0;
 566:	10 92 39 01 	sts	0x0139, r1	; 0x800139 <indiceReproducir>
				}

				iniciarLEDReproducir();
 56a:	0e 94 25 01 	call	0x24a	; 0x24a <iniciarLEDReproducir>

				modoActual = MODO_EEPROM;
 56e:	81 e0       	ldi	r24, 0x01	; 1
 570:	80 93 3b 01 	sts	0x013B, r24	; 0x80013b <modoActual>
			}
		}

		gestionarLED();
 574:	0e 94 32 01 	call	0x264	; 0x264 <gestionarLED>
	}
 578:	a4 cf       	rjmp	.-184    	; 0x4c2 <main+0x4>

0000057a <__vector_14>:

/****************************************/
// Interrupt routines

ISR(TIMER0_COMPA_vect)
{
 57a:	1f 92       	push	r1
 57c:	0f 92       	push	r0
 57e:	0f b6       	in	r0, 0x3f	; 63
 580:	0f 92       	push	r0
 582:	11 24       	eor	r1, r1
 584:	8f 93       	push	r24
	ticks10ms++;
 586:	80 91 3c 01 	lds	r24, 0x013C	; 0x80013c <ticks10ms>
 58a:	8f 5f       	subi	r24, 0xFF	; 255
 58c:	80 93 3c 01 	sts	0x013C, r24	; 0x80013c <ticks10ms>
 590:	8f 91       	pop	r24
 592:	0f 90       	pop	r0
 594:	0f be       	out	0x3f, r0	; 63
 596:	0f 90       	pop	r0
 598:	1f 90       	pop	r1
 59a:	18 95       	reti

0000059c <Servo_ISRHandler>:
static void Servo_ISRHandler(void)
{
	unsigned char i = 0;
	servo_t *servo = 0;

	servoCounter++;
 59c:	80 91 61 01 	lds	r24, 0x0161	; 0x800161 <servoCounter>
 5a0:	90 91 62 01 	lds	r25, 0x0162	; 0x800162 <servoCounter+0x1>
 5a4:	01 96       	adiw	r24, 0x01	; 1
 5a6:	90 93 62 01 	sts	0x0162, r25	; 0x800162 <servoCounter+0x1>
 5aa:	80 93 61 01 	sts	0x0161, r24	; 0x800161 <servoCounter>

	/*
		Inicio de nuevo periodo de 20 ms.
	*/
	if (servoCounter >= SERVO_PERIOD_TICKS)
 5ae:	80 91 61 01 	lds	r24, 0x0161	; 0x800161 <servoCounter>
 5b2:	90 91 62 01 	lds	r25, 0x0162	; 0x800162 <servoCounter+0x1>
 5b6:	80 3d       	cpi	r24, 0xD0	; 208
 5b8:	97 40       	sbci	r25, 0x07	; 7
 5ba:	18 f1       	brcs	.+70     	; 0x602 <Servo_ISRHandler+0x66>
	{
		servoCounter = 0;
 5bc:	10 92 62 01 	sts	0x0162, r1	; 0x800162 <servoCounter+0x1>
 5c0:	10 92 61 01 	sts	0x0161, r1	; 0x800161 <servoCounter>

		for (i = 0; i < servoTotal; i++)
 5c4:	20 e0       	ldi	r18, 0x00	; 0
 5c6:	19 c0       	rjmp	.+50     	; 0x5fa <Servo_ISRHandler+0x5e>
		{
			servo = servoDevices[i];
 5c8:	e2 2f       	mov	r30, r18
 5ca:	f0 e0       	ldi	r31, 0x00	; 0
 5cc:	ee 0f       	add	r30, r30
 5ce:	ff 1f       	adc	r31, r31
 5d0:	ec 59       	subi	r30, 0x9C	; 156
 5d2:	fe 4f       	sbci	r31, 0xFE	; 254
 5d4:	01 90       	ld	r0, Z+
 5d6:	f0 81       	ld	r31, Z
 5d8:	e0 2d       	mov	r30, r0

			if (servo != 0)
 5da:	30 97       	sbiw	r30, 0x00	; 0
 5dc:	69 f0       	breq	.+26     	; 0x5f8 <Servo_ISRHandler+0x5c>
			{
				*(servo->port) |= (1 << servo->pin);
 5de:	a2 81       	ldd	r26, Z+2	; 0x02
 5e0:	b3 81       	ldd	r27, Z+3	; 0x03
 5e2:	3c 91       	ld	r19, X
 5e4:	81 e0       	ldi	r24, 0x01	; 1
 5e6:	90 e0       	ldi	r25, 0x00	; 0
 5e8:	04 80       	ldd	r0, Z+4	; 0x04
 5ea:	02 c0       	rjmp	.+4      	; 0x5f0 <Servo_ISRHandler+0x54>
 5ec:	88 0f       	add	r24, r24
 5ee:	99 1f       	adc	r25, r25
 5f0:	0a 94       	dec	r0
 5f2:	e2 f7       	brpl	.-8      	; 0x5ec <Servo_ISRHandler+0x50>
 5f4:	83 2b       	or	r24, r19
 5f6:	8c 93       	st	X, r24
	*/
	if (servoCounter >= SERVO_PERIOD_TICKS)
	{
		servoCounter = 0;

		for (i = 0; i < servoTotal; i++)
 5f8:	2f 5f       	subi	r18, 0xFF	; 255
 5fa:	80 91 63 01 	lds	r24, 0x0163	; 0x800163 <servoTotal>
 5fe:	28 17       	cp	r18, r24
 600:	18 f3       	brcs	.-58     	; 0x5c8 <Servo_ISRHandler+0x2c>
 602:	80 e0       	ldi	r24, 0x00	; 0
 604:	23 c0       	rjmp	.+70     	; 0x64c <Servo_ISRHandler+0xb0>
	/*
		Apagar cada servo cuando alcanza su ancho de pulso.
	*/
	for (i = 0; i < servoTotal; i++)
	{
		servo = servoDevices[i];
 606:	e8 2f       	mov	r30, r24
 608:	f0 e0       	ldi	r31, 0x00	; 0
 60a:	ee 0f       	add	r30, r30
 60c:	ff 1f       	adc	r31, r31
 60e:	ec 59       	subi	r30, 0x9C	; 156
 610:	fe 4f       	sbci	r31, 0xFE	; 254
 612:	01 90       	ld	r0, Z+
 614:	f0 81       	ld	r31, Z
 616:	e0 2d       	mov	r30, r0

		if (servo != 0)
 618:	30 97       	sbiw	r30, 0x00	; 0
 61a:	b9 f0       	breq	.+46     	; 0x64a <Servo_ISRHandler+0xae>
		{
			if (servoCounter == servo->pulseTicks)
 61c:	45 81       	ldd	r20, Z+5	; 0x05
 61e:	56 81       	ldd	r21, Z+6	; 0x06
 620:	20 91 61 01 	lds	r18, 0x0161	; 0x800161 <servoCounter>
 624:	30 91 62 01 	lds	r19, 0x0162	; 0x800162 <servoCounter+0x1>
 628:	42 17       	cp	r20, r18
 62a:	53 07       	cpc	r21, r19
 62c:	71 f4       	brne	.+28     	; 0x64a <Servo_ISRHandler+0xae>
			{
				*(servo->port) &= ~(1 << servo->pin);
 62e:	a2 81       	ldd	r26, Z+2	; 0x02
 630:	b3 81       	ldd	r27, Z+3	; 0x03
 632:	9c 91       	ld	r25, X
 634:	21 e0       	ldi	r18, 0x01	; 1
 636:	30 e0       	ldi	r19, 0x00	; 0
 638:	04 80       	ldd	r0, Z+4	; 0x04
 63a:	02 c0       	rjmp	.+4      	; 0x640 <Servo_ISRHandler+0xa4>
 63c:	22 0f       	add	r18, r18
 63e:	33 1f       	adc	r19, r19
 640:	0a 94       	dec	r0
 642:	e2 f7       	brpl	.-8      	; 0x63c <Servo_ISRHandler+0xa0>
 644:	20 95       	com	r18
 646:	29 23       	and	r18, r25
 648:	2c 93       	st	X, r18
	}

	/*
		Apagar cada servo cuando alcanza su ancho de pulso.
	*/
	for (i = 0; i < servoTotal; i++)
 64a:	8f 5f       	subi	r24, 0xFF	; 255
 64c:	90 91 63 01 	lds	r25, 0x0163	; 0x800163 <servoTotal>
 650:	89 17       	cp	r24, r25
 652:	c8 f2       	brcs	.-78     	; 0x606 <Servo_ISRHandler+0x6a>
			{
				*(servo->port) &= ~(1 << servo->pin);
			}
		}
	}
}
 654:	08 95       	ret

00000656 <Servo_init>:

void Servo_init(void)
{
	unsigned char i = 0;

	for (i = 0; i < SERVO_MAX_DEVICES; i++)
 656:	80 e0       	ldi	r24, 0x00	; 0
 658:	09 c0       	rjmp	.+18     	; 0x66c <Servo_init+0x16>
	{
		servoDevices[i] = 0;
 65a:	e8 2f       	mov	r30, r24
 65c:	f0 e0       	ldi	r31, 0x00	; 0
 65e:	ee 0f       	add	r30, r30
 660:	ff 1f       	adc	r31, r31
 662:	ec 59       	subi	r30, 0x9C	; 156
 664:	fe 4f       	sbci	r31, 0xFE	; 254
 666:	11 82       	std	Z+1, r1	; 0x01
 668:	10 82       	st	Z, r1

void Servo_init(void)
{
	unsigned char i = 0;

	for (i = 0; i < SERVO_MAX_DEVICES; i++)
 66a:	8f 5f       	subi	r24, 0xFF	; 255
 66c:	84 30       	cpi	r24, 0x04	; 4
 66e:	a8 f3       	brcs	.-22     	; 0x65a <Servo_init+0x4>
	{
		servoDevices[i] = 0;
	}

	servoTotal = 0;
 670:	10 92 63 01 	sts	0x0163, r1	; 0x800163 <servoTotal>
	servoCounter = 0;
 674:	10 92 62 01 	sts	0x0162, r1	; 0x800162 <servoCounter+0x1>
 678:	10 92 61 01 	sts	0x0161, r1	; 0x800161 <servoCounter>

	/*
		Limpiar Timer1.
	*/
	TCCR1A = 0;
 67c:	10 92 80 00 	sts	0x0080, r1	; 0x800080 <__TEXT_REGION_LENGTH__+0x7f8080>
	TCCR1B = 0;
 680:	e1 e8       	ldi	r30, 0x81	; 129
 682:	f0 e0       	ldi	r31, 0x00	; 0
 684:	10 82       	st	Z, r1
	TCNT1 = 0;
 686:	10 92 85 00 	sts	0x0085, r1	; 0x800085 <__TEXT_REGION_LENGTH__+0x7f8085>
 68a:	10 92 84 00 	sts	0x0084, r1	; 0x800084 <__TEXT_REGION_LENGTH__+0x7f8084>

	/*
		Timer1 en modo CTC.
	*/
	TCCR1B |= (1 << WGM12);
 68e:	80 81       	ld	r24, Z
 690:	88 60       	ori	r24, 0x08	; 8
 692:	80 83       	st	Z, r24
		Tiempo por cuenta = 0.5 us

		OCR1A = 19
		20 cuentas * 0.5 us = 10 us
	*/
	OCR1A = 19;
 694:	83 e1       	ldi	r24, 0x13	; 19
 696:	90 e0       	ldi	r25, 0x00	; 0
 698:	90 93 89 00 	sts	0x0089, r25	; 0x800089 <__TEXT_REGION_LENGTH__+0x7f8089>
 69c:	80 93 88 00 	sts	0x0088, r24	; 0x800088 <__TEXT_REGION_LENGTH__+0x7f8088>

	/*
		Prescaler 8.
	*/
	TCCR1B |= (1 << CS11);
 6a0:	80 81       	ld	r24, Z
 6a2:	82 60       	ori	r24, 0x02	; 2
 6a4:	80 83       	st	Z, r24

	/*
		Habilitar interrupcion por comparacion A.
	*/
	TIMSK1 |= (1 << OCIE1A);
 6a6:	ef e6       	ldi	r30, 0x6F	; 111
 6a8:	f0 e0       	ldi	r31, 0x00	; 0
 6aa:	80 81       	ld	r24, Z
 6ac:	82 60       	ori	r24, 0x02	; 2
 6ae:	80 83       	st	Z, r24
 6b0:	08 95       	ret

000006b2 <Servo_attach>:
}

void Servo_attach(servo_t *servo, servo_channel_t channel)
{
 6b2:	fc 01       	movw	r30, r24
	if (servo == 0)
 6b4:	89 2b       	or	r24, r25
 6b6:	09 f4       	brne	.+2      	; 0x6ba <Servo_attach+0x8>
 6b8:	63 c0       	rjmp	.+198    	; 0x780 <Servo_attach+0xce>
	{
		return;
	}

	switch (channel)
 6ba:	61 30       	cpi	r22, 0x01	; 1
 6bc:	89 f0       	breq	.+34     	; 0x6e0 <Servo_attach+0x2e>
 6be:	28 f0       	brcs	.+10     	; 0x6ca <Servo_attach+0x18>
 6c0:	62 30       	cpi	r22, 0x02	; 2
 6c2:	c9 f0       	breq	.+50     	; 0x6f6 <Servo_attach+0x44>
 6c4:	63 30       	cpi	r22, 0x03	; 3
 6c6:	11 f1       	breq	.+68     	; 0x70c <Servo_attach+0x5a>
 6c8:	08 95       	ret
	{
		case SERVO_D3:
			/*
				D3 = PD3
			*/
			servo->ddr = &DDRD;
 6ca:	8a e2       	ldi	r24, 0x2A	; 42
 6cc:	90 e0       	ldi	r25, 0x00	; 0
 6ce:	91 83       	std	Z+1, r25	; 0x01
 6d0:	80 83       	st	Z, r24
			servo->port = &PORTD;
 6d2:	8b e2       	ldi	r24, 0x2B	; 43
 6d4:	90 e0       	ldi	r25, 0x00	; 0
 6d6:	93 83       	std	Z+3, r25	; 0x03
 6d8:	82 83       	std	Z+2, r24	; 0x02
			servo->pin = PD3;
 6da:	83 e0       	ldi	r24, 0x03	; 3
 6dc:	84 83       	std	Z+4, r24	; 0x04
			break;
 6de:	20 c0       	rjmp	.+64     	; 0x720 <Servo_attach+0x6e>

		case SERVO_D5:
			/*
				D5 = PD5
			*/
			servo->ddr = &DDRD;
 6e0:	8a e2       	ldi	r24, 0x2A	; 42
 6e2:	90 e0       	ldi	r25, 0x00	; 0
 6e4:	91 83       	std	Z+1, r25	; 0x01
 6e6:	80 83       	st	Z, r24
			servo->port = &PORTD;
 6e8:	8b e2       	ldi	r24, 0x2B	; 43
 6ea:	90 e0       	ldi	r25, 0x00	; 0
 6ec:	93 83       	std	Z+3, r25	; 0x03
 6ee:	82 83       	std	Z+2, r24	; 0x02
			servo->pin = PD5;
 6f0:	85 e0       	ldi	r24, 0x05	; 5
 6f2:	84 83       	std	Z+4, r24	; 0x04
			break;
 6f4:	15 c0       	rjmp	.+42     	; 0x720 <Servo_attach+0x6e>

		case SERVO_D6:
			/*
				D6 = PD6
			*/
			servo->ddr = &DDRD;
 6f6:	8a e2       	ldi	r24, 0x2A	; 42
 6f8:	90 e0       	ldi	r25, 0x00	; 0
 6fa:	91 83       	std	Z+1, r25	; 0x01
 6fc:	80 83       	st	Z, r24
			servo->port = &PORTD;
 6fe:	8b e2       	ldi	r24, 0x2B	; 43
 700:	90 e0       	ldi	r25, 0x00	; 0
 702:	93 83       	std	Z+3, r25	; 0x03
 704:	82 83       	std	Z+2, r24	; 0x02
			servo->pin = PD6;
 706:	86 e0       	ldi	r24, 0x06	; 6
 708:	84 83       	std	Z+4, r24	; 0x04
			break;
 70a:	0a c0       	rjmp	.+20     	; 0x720 <Servo_attach+0x6e>

		case SERVO_D9:
			/*
				D9 = PB1
			*/
			servo->ddr = &DDRB;
 70c:	84 e2       	ldi	r24, 0x24	; 36
 70e:	90 e0       	ldi	r25, 0x00	; 0
 710:	91 83       	std	Z+1, r25	; 0x01
 712:	80 83       	st	Z, r24
			servo->port = &PORTB;
 714:	85 e2       	ldi	r24, 0x25	; 37
 716:	90 e0       	ldi	r25, 0x00	; 0
 718:	93 83       	std	Z+3, r25	; 0x03
 71a:	82 83       	std	Z+2, r24	; 0x02
			servo->pin = PB1;
 71c:	81 e0       	ldi	r24, 0x01	; 1
 71e:	84 83       	std	Z+4, r24	; 0x04
	}

	/*
		Pin como salida.
	*/
	*(servo->ddr) |= (1 << servo->pin);
 720:	a0 81       	ld	r26, Z
 722:	b1 81       	ldd	r27, Z+1	; 0x01
 724:	4c 91       	ld	r20, X
 726:	81 e0       	ldi	r24, 0x01	; 1
 728:	90 e0       	ldi	r25, 0x00	; 0
 72a:	9c 01       	movw	r18, r24
 72c:	04 80       	ldd	r0, Z+4	; 0x04
 72e:	02 c0       	rjmp	.+4      	; 0x734 <Servo_attach+0x82>
 730:	22 0f       	add	r18, r18
 732:	33 1f       	adc	r19, r19
 734:	0a 94       	dec	r0
 736:	e2 f7       	brpl	.-8      	; 0x730 <Servo_attach+0x7e>
 738:	24 2b       	or	r18, r20
 73a:	2c 93       	st	X, r18

	/*
		Estado inicial bajo.
	*/
	*(servo->port) &= ~(1 << servo->pin);
 73c:	a2 81       	ldd	r26, Z+2	; 0x02
 73e:	b3 81       	ldd	r27, Z+3	; 0x03
 740:	2c 91       	ld	r18, X
 742:	04 80       	ldd	r0, Z+4	; 0x04
 744:	02 c0       	rjmp	.+4      	; 0x74a <Servo_attach+0x98>
 746:	88 0f       	add	r24, r24
 748:	99 1f       	adc	r25, r25
 74a:	0a 94       	dec	r0
 74c:	e2 f7       	brpl	.-8      	; 0x746 <Servo_attach+0x94>
 74e:	80 95       	com	r24
 750:	82 23       	and	r24, r18
 752:	8c 93       	st	X, r24

	/*
		Posicion inicial al centro.
	*/
	servo->pulseTicks = SERVO_CENTER_US / SERVO_TICK_US;
 754:	86 e9       	ldi	r24, 0x96	; 150
 756:	90 e0       	ldi	r25, 0x00	; 0
 758:	96 83       	std	Z+6, r25	; 0x06
 75a:	85 83       	std	Z+5, r24	; 0x05

	/*
		Guardar servo en arreglo interno.
	*/
	if (servoTotal < SERVO_MAX_DEVICES)
 75c:	80 91 63 01 	lds	r24, 0x0163	; 0x800163 <servoTotal>
 760:	84 30       	cpi	r24, 0x04	; 4
 762:	70 f4       	brcc	.+28     	; 0x780 <Servo_attach+0xce>
	{
		servoDevices[servoTotal] = servo;
 764:	a0 91 63 01 	lds	r26, 0x0163	; 0x800163 <servoTotal>
 768:	b0 e0       	ldi	r27, 0x00	; 0
 76a:	aa 0f       	add	r26, r26
 76c:	bb 1f       	adc	r27, r27
 76e:	ac 59       	subi	r26, 0x9C	; 156
 770:	be 4f       	sbci	r27, 0xFE	; 254
 772:	ed 93       	st	X+, r30
 774:	fc 93       	st	X, r31
		servoTotal++;
 776:	80 91 63 01 	lds	r24, 0x0163	; 0x800163 <servoTotal>
 77a:	8f 5f       	subi	r24, 0xFF	; 255
 77c:	80 93 63 01 	sts	0x0163, r24	; 0x800163 <servoTotal>
 780:	08 95       	ret

00000782 <Servo_writeMicroseconds>:
	}
}

void Servo_writeMicroseconds(servo_t *servo, unsigned int pulseMicroseconds)
{
 782:	fc 01       	movw	r30, r24
	unsigned char sreg = 0;

	if (servo == 0)
 784:	89 2b       	or	r24, r25
 786:	f1 f0       	breq	.+60     	; 0x7c4 <Servo_writeMicroseconds+0x42>
	{
		return;
	}

	if (pulseMicroseconds < SERVO_MIN_US)
 788:	64 3f       	cpi	r22, 0xF4	; 244
 78a:	81 e0       	ldi	r24, 0x01	; 1
 78c:	78 07       	cpc	r23, r24
 78e:	10 f4       	brcc	.+4      	; 0x794 <Servo_writeMicroseconds+0x12>
	{
		pulseMicroseconds = SERVO_MIN_US;
 790:	64 ef       	ldi	r22, 0xF4	; 244
 792:	71 e0       	ldi	r23, 0x01	; 1
	}

	if (pulseMicroseconds > SERVO_MAX_US)
 794:	69 3b       	cpi	r22, 0xB9	; 185
 796:	8b e0       	ldi	r24, 0x0B	; 11
 798:	78 07       	cpc	r23, r24
 79a:	10 f0       	brcs	.+4      	; 0x7a0 <Servo_writeMicroseconds+0x1e>
	{
		pulseMicroseconds = SERVO_MAX_US;
 79c:	68 eb       	ldi	r22, 0xB8	; 184
 79e:	7b e0       	ldi	r23, 0x0B	; 11
	}

	/*
		Proteger escritura porque pulseTicks se usa dentro de la interrupcion.
	*/
	sreg = SREG;
 7a0:	4f b7       	in	r20, 0x3f	; 63
	cli();
 7a2:	f8 94       	cli

	servo->pulseTicks = (pulseMicroseconds + (SERVO_TICK_US / 2)) / SERVO_TICK_US;
 7a4:	9b 01       	movw	r18, r22
 7a6:	2b 5f       	subi	r18, 0xFB	; 251
 7a8:	3f 4f       	sbci	r19, 0xFF	; 255
 7aa:	ad ec       	ldi	r26, 0xCD	; 205
 7ac:	bc ec       	ldi	r27, 0xCC	; 204
 7ae:	0e 94 59 05 	call	0xab2	; 0xab2 <__umulhisi3>
 7b2:	96 95       	lsr	r25
 7b4:	87 95       	ror	r24
 7b6:	96 95       	lsr	r25
 7b8:	87 95       	ror	r24
 7ba:	96 95       	lsr	r25
 7bc:	87 95       	ror	r24
 7be:	96 83       	std	Z+6, r25	; 0x06
 7c0:	85 83       	std	Z+5, r24	; 0x05

	SREG = sreg;
 7c2:	4f bf       	out	0x3f, r20	; 63
 7c4:	08 95       	ret

000007c6 <Servo_mapADC>:
}

unsigned int Servo_mapADC(unsigned int adcValue)
{
	if (adcValue > 1023)
 7c6:	81 15       	cp	r24, r1
 7c8:	24 e0       	ldi	r18, 0x04	; 4
 7ca:	92 07       	cpc	r25, r18
 7cc:	10 f0       	brcs	.+4      	; 0x7d2 <Servo_mapADC+0xc>
	{
		adcValue = 1023;
 7ce:	8f ef       	ldi	r24, 0xFF	; 255
 7d0:	93 e0       	ldi	r25, 0x03	; 3
	}

	/*
		Mapear ADC 0-1023 a pulso de 500 us a 3000 us.
	*/
	return (SERVO_MIN_US + ((unsigned long)adcValue * (SERVO_MAX_US - SERVO_MIN_US)) / 1023UL);
 7d2:	9c 01       	movw	r18, r24
 7d4:	a4 ec       	ldi	r26, 0xC4	; 196
 7d6:	b9 e0       	ldi	r27, 0x09	; 9
 7d8:	0e 94 59 05 	call	0xab2	; 0xab2 <__umulhisi3>
 7dc:	2f ef       	ldi	r18, 0xFF	; 255
 7de:	33 e0       	ldi	r19, 0x03	; 3
 7e0:	40 e0       	ldi	r20, 0x00	; 0
 7e2:	50 e0       	ldi	r21, 0x00	; 0
 7e4:	0e 94 37 05 	call	0xa6e	; 0xa6e <__udivmodsi4>
}
 7e8:	c9 01       	movw	r24, r18
 7ea:	8c 50       	subi	r24, 0x0C	; 12
 7ec:	9e 4f       	sbci	r25, 0xFE	; 254
 7ee:	08 95       	ret

000007f0 <Servo_writeADC>:

void Servo_writeADC(servo_t *servo, unsigned int adcValue)
{
 7f0:	cf 93       	push	r28
 7f2:	df 93       	push	r29
 7f4:	ec 01       	movw	r28, r24
 7f6:	cb 01       	movw	r24, r22
	Servo_writeMicroseconds(servo, Servo_mapADC(adcValue));
 7f8:	0e 94 e3 03 	call	0x7c6	; 0x7c6 <Servo_mapADC>
 7fc:	bc 01       	movw	r22, r24
 7fe:	ce 01       	movw	r24, r28
 800:	0e 94 c1 03 	call	0x782	; 0x782 <Servo_writeMicroseconds>
}
 804:	df 91       	pop	r29
 806:	cf 91       	pop	r28
 808:	08 95       	ret

0000080a <Servo_mapAngle>:

unsigned int Servo_mapAngle(unsigned char angle)
{
	if (angle > 180)
 80a:	85 3b       	cpi	r24, 0xB5	; 181
 80c:	08 f0       	brcs	.+2      	; 0x810 <Servo_mapAngle+0x6>
	{
		angle = 180;
 80e:	84 eb       	ldi	r24, 0xB4	; 180
	}

	/*
		Mapear angulo 0-180 a pulso de 500 us a 3000 us.
	*/
	return (SERVO_MIN_US + ((unsigned long)angle * (SERVO_MAX_US - SERVO_MIN_US)) / 180UL);
 810:	28 2f       	mov	r18, r24
 812:	30 e0       	ldi	r19, 0x00	; 0
 814:	a4 ec       	ldi	r26, 0xC4	; 196
 816:	b9 e0       	ldi	r27, 0x09	; 9
 818:	0e 94 59 05 	call	0xab2	; 0xab2 <__umulhisi3>
 81c:	24 eb       	ldi	r18, 0xB4	; 180
 81e:	30 e0       	ldi	r19, 0x00	; 0
 820:	40 e0       	ldi	r20, 0x00	; 0
 822:	50 e0       	ldi	r21, 0x00	; 0
 824:	0e 94 37 05 	call	0xa6e	; 0xa6e <__udivmodsi4>
}
 828:	c9 01       	movw	r24, r18
 82a:	8c 50       	subi	r24, 0x0C	; 12
 82c:	9e 4f       	sbci	r25, 0xFE	; 254
 82e:	08 95       	ret

00000830 <Servo_writeAngle>:

void Servo_writeAngle(servo_t *servo, unsigned char angle)
{
 830:	cf 93       	push	r28
 832:	df 93       	push	r29
 834:	ec 01       	movw	r28, r24
 836:	86 2f       	mov	r24, r22
	Servo_writeMicroseconds(servo, Servo_mapAngle(angle));
 838:	0e 94 05 04 	call	0x80a	; 0x80a <Servo_mapAngle>
 83c:	bc 01       	movw	r22, r24
 83e:	ce 01       	movw	r24, r28
 840:	0e 94 c1 03 	call	0x782	; 0x782 <Servo_writeMicroseconds>
}
 844:	df 91       	pop	r29
 846:	cf 91       	pop	r28
 848:	08 95       	ret

0000084a <Servo_getAngle>:
unsigned char Servo_getAngle(servo_t *servo)
{
	unsigned int pulseMicroseconds = 0;
	unsigned char angle = 0;

	if (servo == 0)
 84a:	00 97       	sbiw	r24, 0x00	; 0
 84c:	41 f1       	breq	.+80     	; 0x89e <Servo_getAngle+0x54>
	{
		return 90;
	}

	pulseMicroseconds = servo->pulseTicks * SERVO_TICK_US;
 84e:	fc 01       	movw	r30, r24
 850:	85 81       	ldd	r24, Z+5	; 0x05
 852:	96 81       	ldd	r25, Z+6	; 0x06
 854:	9c 01       	movw	r18, r24
 856:	22 0f       	add	r18, r18
 858:	33 1f       	adc	r19, r19
 85a:	88 0f       	add	r24, r24
 85c:	99 1f       	adc	r25, r25
 85e:	88 0f       	add	r24, r24
 860:	99 1f       	adc	r25, r25
 862:	88 0f       	add	r24, r24
 864:	99 1f       	adc	r25, r25
 866:	28 0f       	add	r18, r24
 868:	39 1f       	adc	r19, r25

	if (pulseMicroseconds < SERVO_MIN_US)
 86a:	24 3f       	cpi	r18, 0xF4	; 244
 86c:	f1 e0       	ldi	r31, 0x01	; 1
 86e:	3f 07       	cpc	r19, r31
 870:	10 f4       	brcc	.+4      	; 0x876 <Servo_getAngle+0x2c>
	{
		pulseMicroseconds = SERVO_MIN_US;
 872:	24 ef       	ldi	r18, 0xF4	; 244
 874:	31 e0       	ldi	r19, 0x01	; 1
	}

	if (pulseMicroseconds > SERVO_MAX_US)
 876:	29 3b       	cpi	r18, 0xB9	; 185
 878:	8b e0       	ldi	r24, 0x0B	; 11
 87a:	38 07       	cpc	r19, r24
 87c:	10 f0       	brcs	.+4      	; 0x882 <Servo_getAngle+0x38>
	{
		pulseMicroseconds = SERVO_MAX_US;
 87e:	28 eb       	ldi	r18, 0xB8	; 184
 880:	3b e0       	ldi	r19, 0x0B	; 11
	}

	angle = (unsigned char)(((unsigned long)(pulseMicroseconds - SERVO_MIN_US) * 180UL) / (SERVO_MAX_US - SERVO_MIN_US));
 882:	24 5f       	subi	r18, 0xF4	; 244
 884:	31 40       	sbci	r19, 0x01	; 1
 886:	a4 eb       	ldi	r26, 0xB4	; 180
 888:	b0 e0       	ldi	r27, 0x00	; 0
 88a:	0e 94 59 05 	call	0xab2	; 0xab2 <__umulhisi3>
 88e:	24 ec       	ldi	r18, 0xC4	; 196
 890:	39 e0       	ldi	r19, 0x09	; 9
 892:	40 e0       	ldi	r20, 0x00	; 0
 894:	50 e0       	ldi	r21, 0x00	; 0
 896:	0e 94 37 05 	call	0xa6e	; 0xa6e <__udivmodsi4>

	return angle;
 89a:	82 2f       	mov	r24, r18
 89c:	08 95       	ret
	unsigned int pulseMicroseconds = 0;
	unsigned char angle = 0;

	if (servo == 0)
	{
		return 90;
 89e:	8a e5       	ldi	r24, 0x5A	; 90
	}

	angle = (unsigned char)(((unsigned long)(pulseMicroseconds - SERVO_MIN_US) * 180UL) / (SERVO_MAX_US - SERVO_MIN_US));

	return angle;
}
 8a0:	08 95       	ret

000008a2 <__vector_11>:

/****************************************/
// Interrupt routines

ISR(TIMER1_COMPA_vect)
{
 8a2:	1f 92       	push	r1
 8a4:	0f 92       	push	r0
 8a6:	0f b6       	in	r0, 0x3f	; 63
 8a8:	0f 92       	push	r0
 8aa:	11 24       	eor	r1, r1
 8ac:	2f 93       	push	r18
 8ae:	3f 93       	push	r19
 8b0:	4f 93       	push	r20
 8b2:	5f 93       	push	r21
 8b4:	6f 93       	push	r22
 8b6:	7f 93       	push	r23
 8b8:	8f 93       	push	r24
 8ba:	9f 93       	push	r25
 8bc:	af 93       	push	r26
 8be:	bf 93       	push	r27
 8c0:	ef 93       	push	r30
 8c2:	ff 93       	push	r31
	Servo_ISRHandler();
 8c4:	0e 94 ce 02 	call	0x59c	; 0x59c <Servo_ISRHandler>
 8c8:	ff 91       	pop	r31
 8ca:	ef 91       	pop	r30
 8cc:	bf 91       	pop	r27
 8ce:	af 91       	pop	r26
 8d0:	9f 91       	pop	r25
 8d2:	8f 91       	pop	r24
 8d4:	7f 91       	pop	r23
 8d6:	6f 91       	pop	r22
 8d8:	5f 91       	pop	r21
 8da:	4f 91       	pop	r20
 8dc:	3f 91       	pop	r19
 8de:	2f 91       	pop	r18
 8e0:	0f 90       	pop	r0
 8e2:	0f be       	out	0x3f, r0	; 63
 8e4:	0f 90       	pop	r0
 8e6:	1f 90       	pop	r1
 8e8:	18 95       	reti

000008ea <getTimer0PrescalerBits>:
	TCCR1B |= (1 << WGM12);

	TCCR1B |= getTimer1PrescalerBits(prescaler);

	timer1ClearCompareAFlag();
}
 8ea:	80 34       	cpi	r24, 0x40	; 64
 8ec:	91 05       	cpc	r25, r1
 8ee:	89 f0       	breq	.+34     	; 0x912 <__stack+0x13>
 8f0:	30 f4       	brcc	.+12     	; 0x8fe <getTimer0PrescalerBits+0x14>
 8f2:	81 30       	cpi	r24, 0x01	; 1
 8f4:	91 05       	cpc	r25, r1
 8f6:	59 f0       	breq	.+22     	; 0x90e <__stack+0xf>
 8f8:	08 97       	sbiw	r24, 0x08	; 8
 8fa:	99 f0       	breq	.+38     	; 0x922 <__stack+0x23>
 8fc:	10 c0       	rjmp	.+32     	; 0x91e <__stack+0x1f>
 8fe:	81 15       	cp	r24, r1
 900:	21 e0       	ldi	r18, 0x01	; 1
 902:	92 07       	cpc	r25, r18
 904:	41 f0       	breq	.+16     	; 0x916 <__stack+0x17>
 906:	81 15       	cp	r24, r1
 908:	94 40       	sbci	r25, 0x04	; 4
 90a:	39 f0       	breq	.+14     	; 0x91a <__stack+0x1b>
 90c:	08 c0       	rjmp	.+16     	; 0x91e <__stack+0x1f>
 90e:	81 e0       	ldi	r24, 0x01	; 1
 910:	08 95       	ret
 912:	83 e0       	ldi	r24, 0x03	; 3
 914:	08 95       	ret
 916:	84 e0       	ldi	r24, 0x04	; 4
 918:	08 95       	ret
 91a:	85 e0       	ldi	r24, 0x05	; 5
 91c:	08 95       	ret
 91e:	80 e0       	ldi	r24, 0x00	; 0
 920:	08 95       	ret
 922:	82 e0       	ldi	r24, 0x02	; 2
 924:	08 95       	ret

00000926 <timer0ClearCompareAFlag>:
 926:	85 b3       	in	r24, 0x15	; 21
 928:	82 60       	ori	r24, 0x02	; 2
 92a:	85 bb       	out	0x15, r24	; 21
 92c:	08 95       	ret

0000092e <initTimer0_CTC>:
 92e:	14 bc       	out	0x24, r1	; 36
 930:	15 bc       	out	0x25, r1	; 37
 932:	16 bc       	out	0x26, r1	; 38
 934:	87 bd       	out	0x27, r24	; 39
 936:	94 b5       	in	r25, 0x24	; 36
 938:	92 60       	ori	r25, 0x02	; 2
 93a:	94 bd       	out	0x24, r25	; 36
 93c:	cb 01       	movw	r24, r22
 93e:	0e 94 75 04 	call	0x8ea	; 0x8ea <getTimer0PrescalerBits>
 942:	95 b5       	in	r25, 0x25	; 37
 944:	89 2b       	or	r24, r25
 946:	85 bd       	out	0x25, r24	; 37
 948:	0e 94 93 04 	call	0x926	; 0x926 <timer0ClearCompareAFlag>
 94c:	08 95       	ret

0000094e <timer0_usToTicks>:
{
	TIFR1 |= (1 << OCF1A);
}

uint8_t timer0_usToTicks(uint32_t tiempo_us, uint16_t prescaler)
{
 94e:	cf 92       	push	r12
 950:	df 92       	push	r13
 952:	ef 92       	push	r14
 954:	ff 92       	push	r15
 956:	6b 01       	movw	r12, r22
 958:	7c 01       	movw	r14, r24
		ticks = tiempo_us * F_CPU / prescaler / 1000000

		Se resta 1 porque el Timer cuenta desde 0 hasta OCRnA.
	*/

	ticks = ((tiempo_us * (F_CPU / prescaler)) / 1000000UL);
 95a:	9a 01       	movw	r18, r20
 95c:	40 e0       	ldi	r20, 0x00	; 0
 95e:	50 e0       	ldi	r21, 0x00	; 0
 960:	60 e0       	ldi	r22, 0x00	; 0
 962:	74 e2       	ldi	r23, 0x24	; 36
 964:	84 ef       	ldi	r24, 0xF4	; 244
 966:	90 e0       	ldi	r25, 0x00	; 0
 968:	0e 94 37 05 	call	0xa6e	; 0xa6e <__udivmodsi4>
 96c:	c7 01       	movw	r24, r14
 96e:	b6 01       	movw	r22, r12
 970:	0e 94 27 05 	call	0xa4e	; 0xa4e <__mulsi3>
 974:	20 e4       	ldi	r18, 0x40	; 64
 976:	32 e4       	ldi	r19, 0x42	; 66
 978:	4f e0       	ldi	r20, 0x0F	; 15
 97a:	50 e0       	ldi	r21, 0x00	; 0
 97c:	0e 94 37 05 	call	0xa6e	; 0xa6e <__udivmodsi4>
 980:	da 01       	movw	r26, r20
 982:	c9 01       	movw	r24, r18

	if (ticks > 0)
 984:	23 2b       	or	r18, r19
 986:	24 2b       	or	r18, r20
 988:	25 2b       	or	r18, r21
 98a:	19 f0       	breq	.+6      	; 0x992 <timer0_usToTicks+0x44>
	{
		ticks = ticks - 1;
 98c:	01 97       	sbiw	r24, 0x01	; 1
 98e:	a1 09       	sbc	r26, r1
 990:	b1 09       	sbc	r27, r1
	}

	if (ticks > 255)
 992:	8f 3f       	cpi	r24, 0xFF	; 255
 994:	91 05       	cpc	r25, r1
 996:	a1 05       	cpc	r26, r1
 998:	b1 05       	cpc	r27, r1
 99a:	29 f0       	breq	.+10     	; 0x9a6 <timer0_usToTicks+0x58>
 99c:	20 f0       	brcs	.+8      	; 0x9a6 <timer0_usToTicks+0x58>
	{
		ticks = 255;
 99e:	8f ef       	ldi	r24, 0xFF	; 255
 9a0:	90 e0       	ldi	r25, 0x00	; 0
 9a2:	a0 e0       	ldi	r26, 0x00	; 0
 9a4:	b0 e0       	ldi	r27, 0x00	; 0
	}

	return (uint8_t)ticks;
}
 9a6:	ff 90       	pop	r15
 9a8:	ef 90       	pop	r14
 9aa:	df 90       	pop	r13
 9ac:	cf 90       	pop	r12
 9ae:	08 95       	ret

000009b0 <initUART_Baud>:
	*/
	for (j = 0; j < i; j++)
	{
		writeChar(buffer[j]);
	}
}
 9b0:	dc 01       	movw	r26, r24
 9b2:	cb 01       	movw	r24, r22
 9b4:	88 0f       	add	r24, r24
 9b6:	99 1f       	adc	r25, r25
 9b8:	aa 1f       	adc	r26, r26
 9ba:	bb 1f       	adc	r27, r27
 9bc:	88 0f       	add	r24, r24
 9be:	99 1f       	adc	r25, r25
 9c0:	aa 1f       	adc	r26, r26
 9c2:	bb 1f       	adc	r27, r27
 9c4:	9c 01       	movw	r18, r24
 9c6:	ad 01       	movw	r20, r26
 9c8:	22 0f       	add	r18, r18
 9ca:	33 1f       	adc	r19, r19
 9cc:	44 1f       	adc	r20, r20
 9ce:	55 1f       	adc	r21, r21
 9d0:	22 0f       	add	r18, r18
 9d2:	33 1f       	adc	r19, r19
 9d4:	44 1f       	adc	r20, r20
 9d6:	55 1f       	adc	r21, r21
 9d8:	60 e0       	ldi	r22, 0x00	; 0
 9da:	74 e2       	ldi	r23, 0x24	; 36
 9dc:	84 ef       	ldi	r24, 0xF4	; 244
 9de:	90 e0       	ldi	r25, 0x00	; 0
 9e0:	0e 94 37 05 	call	0xa6e	; 0xa6e <__udivmodsi4>
 9e4:	21 50       	subi	r18, 0x01	; 1
 9e6:	31 09       	sbc	r19, r1
 9e8:	30 93 c5 00 	sts	0x00C5, r19	; 0x8000c5 <__TEXT_REGION_LENGTH__+0x7f80c5>
 9ec:	20 93 c4 00 	sts	0x00C4, r18	; 0x8000c4 <__TEXT_REGION_LENGTH__+0x7f80c4>
 9f0:	88 e1       	ldi	r24, 0x18	; 24
 9f2:	80 93 c1 00 	sts	0x00C1, r24	; 0x8000c1 <__TEXT_REGION_LENGTH__+0x7f80c1>
 9f6:	86 e0       	ldi	r24, 0x06	; 6
 9f8:	80 93 c2 00 	sts	0x00C2, r24	; 0x8000c2 <__TEXT_REGION_LENGTH__+0x7f80c2>
 9fc:	08 95       	ret

000009fe <initUART>:
 9fe:	60 e8       	ldi	r22, 0x80	; 128
 a00:	75 e2       	ldi	r23, 0x25	; 37
 a02:	80 e0       	ldi	r24, 0x00	; 0
 a04:	90 e0       	ldi	r25, 0x00	; 0
 a06:	0e 94 d8 04 	call	0x9b0	; 0x9b0 <initUART_Baud>
 a0a:	08 95       	ret

00000a0c <writeChar>:
 a0c:	90 91 c0 00 	lds	r25, 0x00C0	; 0x8000c0 <__TEXT_REGION_LENGTH__+0x7f80c0>
 a10:	95 ff       	sbrs	r25, 5
 a12:	fc cf       	rjmp	.-8      	; 0xa0c <writeChar>
 a14:	80 93 c6 00 	sts	0x00C6, r24	; 0x8000c6 <__TEXT_REGION_LENGTH__+0x7f80c6>
 a18:	08 95       	ret

00000a1a <writeString>:
 a1a:	0f 93       	push	r16
 a1c:	1f 93       	push	r17
 a1e:	cf 93       	push	r28
 a20:	8c 01       	movw	r16, r24
 a22:	c0 e0       	ldi	r28, 0x00	; 0
 a24:	03 c0       	rjmp	.+6      	; 0xa2c <writeString+0x12>
 a26:	0e 94 06 05 	call	0xa0c	; 0xa0c <writeChar>
 a2a:	cf 5f       	subi	r28, 0xFF	; 255
 a2c:	f8 01       	movw	r30, r16
 a2e:	ec 0f       	add	r30, r28
 a30:	f1 1d       	adc	r31, r1
 a32:	80 81       	ld	r24, Z
 a34:	81 11       	cpse	r24, r1
 a36:	f7 cf       	rjmp	.-18     	; 0xa26 <writeString+0xc>
 a38:	cf 91       	pop	r28
 a3a:	1f 91       	pop	r17
 a3c:	0f 91       	pop	r16
 a3e:	08 95       	ret

00000a40 <writeNewLine>:

void writeNewLine(void)
{
	writeChar('\r');
 a40:	8d e0       	ldi	r24, 0x0D	; 13
 a42:	0e 94 06 05 	call	0xa0c	; 0xa0c <writeChar>
	writeChar('\n');
 a46:	8a e0       	ldi	r24, 0x0A	; 10
 a48:	0e 94 06 05 	call	0xa0c	; 0xa0c <writeChar>
 a4c:	08 95       	ret

00000a4e <__mulsi3>:
 a4e:	db 01       	movw	r26, r22
 a50:	8f 93       	push	r24
 a52:	9f 93       	push	r25
 a54:	0e 94 68 05 	call	0xad0	; 0xad0 <__muluhisi3>
 a58:	bf 91       	pop	r27
 a5a:	af 91       	pop	r26
 a5c:	a2 9f       	mul	r26, r18
 a5e:	80 0d       	add	r24, r0
 a60:	91 1d       	adc	r25, r1
 a62:	a3 9f       	mul	r26, r19
 a64:	90 0d       	add	r25, r0
 a66:	b2 9f       	mul	r27, r18
 a68:	90 0d       	add	r25, r0
 a6a:	11 24       	eor	r1, r1
 a6c:	08 95       	ret

00000a6e <__udivmodsi4>:
 a6e:	a1 e2       	ldi	r26, 0x21	; 33
 a70:	1a 2e       	mov	r1, r26
 a72:	aa 1b       	sub	r26, r26
 a74:	bb 1b       	sub	r27, r27
 a76:	fd 01       	movw	r30, r26
 a78:	0d c0       	rjmp	.+26     	; 0xa94 <__udivmodsi4_ep>

00000a7a <__udivmodsi4_loop>:
 a7a:	aa 1f       	adc	r26, r26
 a7c:	bb 1f       	adc	r27, r27
 a7e:	ee 1f       	adc	r30, r30
 a80:	ff 1f       	adc	r31, r31
 a82:	a2 17       	cp	r26, r18
 a84:	b3 07       	cpc	r27, r19
 a86:	e4 07       	cpc	r30, r20
 a88:	f5 07       	cpc	r31, r21
 a8a:	20 f0       	brcs	.+8      	; 0xa94 <__udivmodsi4_ep>
 a8c:	a2 1b       	sub	r26, r18
 a8e:	b3 0b       	sbc	r27, r19
 a90:	e4 0b       	sbc	r30, r20
 a92:	f5 0b       	sbc	r31, r21

00000a94 <__udivmodsi4_ep>:
 a94:	66 1f       	adc	r22, r22
 a96:	77 1f       	adc	r23, r23
 a98:	88 1f       	adc	r24, r24
 a9a:	99 1f       	adc	r25, r25
 a9c:	1a 94       	dec	r1
 a9e:	69 f7       	brne	.-38     	; 0xa7a <__udivmodsi4_loop>
 aa0:	60 95       	com	r22
 aa2:	70 95       	com	r23
 aa4:	80 95       	com	r24
 aa6:	90 95       	com	r25
 aa8:	9b 01       	movw	r18, r22
 aaa:	ac 01       	movw	r20, r24
 aac:	bd 01       	movw	r22, r26
 aae:	cf 01       	movw	r24, r30
 ab0:	08 95       	ret

00000ab2 <__umulhisi3>:
 ab2:	a2 9f       	mul	r26, r18
 ab4:	b0 01       	movw	r22, r0
 ab6:	b3 9f       	mul	r27, r19
 ab8:	c0 01       	movw	r24, r0
 aba:	a3 9f       	mul	r26, r19
 abc:	70 0d       	add	r23, r0
 abe:	81 1d       	adc	r24, r1
 ac0:	11 24       	eor	r1, r1
 ac2:	91 1d       	adc	r25, r1
 ac4:	b2 9f       	mul	r27, r18
 ac6:	70 0d       	add	r23, r0
 ac8:	81 1d       	adc	r24, r1
 aca:	11 24       	eor	r1, r1
 acc:	91 1d       	adc	r25, r1
 ace:	08 95       	ret

00000ad0 <__muluhisi3>:
 ad0:	0e 94 59 05 	call	0xab2	; 0xab2 <__umulhisi3>
 ad4:	a5 9f       	mul	r26, r21
 ad6:	90 0d       	add	r25, r0
 ad8:	b4 9f       	mul	r27, r20
 ada:	90 0d       	add	r25, r0
 adc:	a4 9f       	mul	r26, r20
 ade:	80 0d       	add	r24, r0
 ae0:	91 1d       	adc	r25, r1
 ae2:	11 24       	eor	r1, r1
 ae4:	08 95       	ret

00000ae6 <_exit>:
 ae6:	f8 94       	cli

00000ae8 <__stop_program>:
 ae8:	ff cf       	rjmp	.-2      	; 0xae8 <__stop_program>
